target datalayout = "e-m:e-p270:32:32-p271:32:32-p272:64:64-i64:64-i128:128-f80:128-n8:16:32:64-S128"
target triple = "x86_64-pc-linux-gnu"

%struct._object = type { %union.anon, ptr }
%union.anon = type { i64 }
%struct.PyVarObject = type { %struct._object, i64 }
%struct._ts = type { ptr, ptr, ptr, i64, %struct.anon, i32, i32, i32, i32, i32, i32, i32, i32, ptr, ptr, ptr, ptr, ptr, ptr, ptr, ptr, i32, ptr, i64, i64, ptr, i64, i32, ptr, ptr, ptr, i64, i64, ptr, ptr, ptr, %struct._err_stackitem, ptr, i64, ptr, ptr }
%struct.anon = type { i32 }
%struct._err_stackitem = type { ptr, ptr }
%struct.anon.5 = type { i32, i32 }
%struct._PyInterpreterFrame = type { %union._PyStackRef, ptr, %union._PyStackRef, ptr, ptr, ptr, ptr, ptr, ptr, i16, i8, i8, [1 x %union._PyStackRef] }
%union._PyStackRef = type { i64 }
%struct.PyCodeObject = type { %struct.PyVarObject, ptr, ptr, ptr, i32, i32, i32, i32, i32, i32, i32, i32, i32, i32, i32, i32, ptr, ptr, ptr, ptr, ptr, ptr, ptr, ptr, ptr, i64, ptr, i64, i32, ptr, [1 x i8] }
%union._Py_CODEUNIT = type { i16 }

@_Py_NoneStruct = external global %struct._object, align 8
@_Py_tss_tstate = external thread_local global ptr, align 8
@.str.122 = private unnamed_addr constant [24 x i8] c"sys._getframemodulename\00", align 1
@.str.123 = private unnamed_addr constant [2 x i8] c"i\00", align 1

; Function Attrs: alwaysinline nounwind uwtable
define internal void @Py_INCREF(ptr noundef %0) #5 {
  %2 = alloca ptr, align 8
  %3 = alloca i32, align 4
  %4 = alloca i32, align 4
  store ptr %0, ptr %2, align 8, !tbaa !9
  call void @llvm.lifetime.start.p0(i64 4, ptr %3) #12
  %5 = load ptr, ptr %2, align 8, !tbaa !9
  %6 = getelementptr inbounds nuw %struct._object, ptr %5, i32 0, i32 0
  %7 = getelementptr inbounds nuw %struct.anon.5, ptr %6, i32 0, i32 0
  %8 = load i32, ptr %7, align 8, !tbaa !102
  store i32 %8, ptr %3, align 4, !tbaa !97
  %9 = load i32, ptr %3, align 4, !tbaa !97
  %10 = icmp slt i32 %9, 0
  br i1 %10, label %11, label %12

11:                                               ; preds = %1
  store i32 1, ptr %4, align 4
  br label %18

12:                                               ; preds = %1
  %13 = load i32, ptr %3, align 4, !tbaa !97
  %14 = add i32 %13, 1
  %15 = load ptr, ptr %2, align 8, !tbaa !9
  %16 = getelementptr inbounds nuw %struct._object, ptr %15, i32 0, i32 0
  %17 = getelementptr inbounds nuw %struct.anon.5, ptr %16, i32 0, i32 0
  store i32 %14, ptr %17, align 8, !tbaa !102
  store i32 0, ptr %4, align 4
  br label %18

18:                                               ; preds = %12, %11
  call void @llvm.lifetime.end.p0(i64 4, ptr %3) #12
  %19 = load i32, ptr %4, align 4
  switch i32 %19, label %21 [
    i32 0, label %20
    i32 1, label %20
  ]

20:                                               ; preds = %18, %18
  ret void

21:                                               ; preds = %18
  unreachable
}

; Function Attrs: inlinehint nounwind uwtable
define internal ptr @_PyFrame_GetCode(ptr noundef %0) #3 {
  %2 = alloca ptr, align 8
  %3 = alloca ptr, align 8
  store ptr %0, ptr %2, align 8, !tbaa !287
  call void @llvm.lifetime.start.p0(i64 8, ptr %3) #12
  %4 = load ptr, ptr %2, align 8, !tbaa !287
  %5 = getelementptr inbounds nuw %struct._PyInterpreterFrame, ptr %4, i32 0, i32 0
  %6 = load i64, ptr %5, align 8, !tbaa !102
  %7 = inttoptr i64 %6 to ptr
  store ptr %7, ptr %3, align 8, !tbaa !9
  %8 = load ptr, ptr %3, align 8, !tbaa !9
  call void @llvm.lifetime.end.p0(i64 8, ptr %3) #12
  ret ptr %8
}

; Function Attrs: inlinehint nounwind uwtable
define internal ptr @_PyFrame_GetBytecode(ptr noundef %0) #3 {
  %2 = alloca ptr, align 8
  store ptr %0, ptr %2, align 8, !tbaa !287
  %3 = load ptr, ptr %2, align 8, !tbaa !287
  %4 = call ptr @_PyFrame_GetCode(ptr noundef %3)
  %5 = getelementptr inbounds nuw %struct.PyCodeObject, ptr %4, i32 0, i32 30
  %6 = getelementptr inbounds [1 x i8], ptr %5, i64 0, i64 0
  ret ptr %6
}

; Function Attrs: inlinehint nounwind uwtable
define internal ptr @_Py_NewRef(ptr noundef %0) #3 {
  %2 = alloca ptr, align 8
  store ptr %0, ptr %2, align 8, !tbaa !9
  %3 = load ptr, ptr %2, align 8, !tbaa !9
  call void @Py_INCREF(ptr noundef %3)
  %4 = load ptr, ptr %2, align 8, !tbaa !9
  ret ptr %4
}

; Function Attrs: inlinehint nounwind uwtable
define internal zeroext i1 @_PyFrame_IsIncomplete(ptr noundef %0) #3 {
  %2 = alloca i1, align 1
  %3 = alloca ptr, align 8
  store ptr %0, ptr %3, align 8, !tbaa !287
  %4 = load ptr, ptr %3, align 8, !tbaa !287
  %5 = getelementptr inbounds nuw %struct._PyInterpreterFrame, ptr %4, i32 0, i32 10
  %6 = load i8, ptr %5, align 2, !tbaa !296
  %7 = sext i8 %6 to i32
  %8 = icmp sge i32 %7, 3
  br i1 %8, label %9, label %10

9:                                                ; preds = %1
  store i1 true, ptr %2, align 1
  br label %31

10:                                               ; preds = %1
  %11 = load ptr, ptr %3, align 8, !tbaa !287
  %12 = getelementptr inbounds nuw %struct._PyInterpreterFrame, ptr %11, i32 0, i32 10
  %13 = load i8, ptr %12, align 2, !tbaa !296
  %14 = sext i8 %13 to i32
  %15 = icmp ne i32 %14, 1
  br i1 %15, label %16, label %29

16:                                               ; preds = %10
  %17 = load ptr, ptr %3, align 8, !tbaa !287
  %18 = getelementptr inbounds nuw %struct._PyInterpreterFrame, ptr %17, i32 0, i32 7
  %19 = load ptr, ptr %18, align 8, !tbaa !297
  %20 = load ptr, ptr %3, align 8, !tbaa !287
  %21 = call ptr @_PyFrame_GetBytecode(ptr noundef %20)
  %22 = load ptr, ptr %3, align 8, !tbaa !287
  %23 = call ptr @_PyFrame_GetCode(ptr noundef %22)
  %24 = getelementptr inbounds nuw %struct.PyCodeObject, ptr %23, i32 0, i32 28
  %25 = load i32, ptr %24, align 8, !tbaa !298
  %26 = sext i32 %25 to i64
  %27 = getelementptr %union._Py_CODEUNIT, ptr %21, i64 %26
  %28 = icmp ult ptr %19, %27
  br label %29

29:                                               ; preds = %16, %10
  %30 = phi i1 [ false, %10 ], [ %28, %16 ]
  store i1 %30, ptr %2, align 1
  br label %31

31:                                               ; preds = %29, %9
  %32 = load i1, ptr %2, align 1
  ret i1 %32
}

; Function Attrs: inlinehint nounwind uwtable
define internal ptr @_PyThreadState_GET() #3 {
  %1 = call align 8 ptr @llvm.threadlocal.address.p0(ptr align 8 @_Py_tss_tstate)
  %2 = load ptr, ptr %1, align 8, !tbaa !4
  ret ptr %2
}

; Function Attrs: inlinehint nounwind uwtable
define internal i64 @Py_SIZE(ptr noundef %0) #3 {
  %2 = alloca ptr, align 8
  store ptr %0, ptr %2, align 8, !tbaa !9
  %3 = load ptr, ptr %2, align 8, !tbaa !9
  %4 = getelementptr inbounds nuw %struct.PyVarObject, ptr %3, i32 0, i32 1
  %5 = load i64, ptr %4, align 8, !tbaa !279
  ret i64 %5
}

; Function Attrs: nounwind uwtable
define internal ptr @sys__getframemodulename_impl(ptr noundef %0, i32 noundef %1) #0 {
  %3 = alloca ptr, align 8
  %4 = alloca ptr, align 8
  %5 = alloca i32, align 4
  %6 = alloca ptr, align 8
  %7 = alloca i32, align 4
  %8 = alloca ptr, align 8
  %9 = alloca ptr, align 8
  store ptr %0, ptr %4, align 8, !tbaa !9
  store i32 %1, ptr %5, align 4, !tbaa !97
  %10 = load i32, ptr %5, align 4, !tbaa !97
  %11 = call i32 (ptr, ptr, ...) @PySys_Audit(ptr noundef @.str.122, ptr noundef @.str.123, i32 noundef %10)
  %12 = icmp slt i32 %11, 0
  br i1 %12, label %13, label %14

13:                                               ; preds = %2
  store ptr null, ptr %3, align 8
  br label %59

14:                                               ; preds = %2
  call void @llvm.lifetime.start.p0(i64 8, ptr %6) #12
  %15 = call ptr @_PyThreadState_GET()
  %16 = getelementptr inbounds nuw %struct._ts, ptr %15, i32 0, i32 13
  %17 = load ptr, ptr %16, align 8, !tbaa !286
  store ptr %17, ptr %6, align 8, !tbaa !287
  br label %18

18:                                               ; preds = %32, %14
  %19 = load ptr, ptr %6, align 8, !tbaa !287
  %20 = icmp ne ptr %19, null
  br i1 %20, label %21, label %30

21:                                               ; preds = %18
  %22 = load ptr, ptr %6, align 8, !tbaa !287
  %23 = call zeroext i1 @_PyFrame_IsIncomplete(ptr noundef %22)
  br i1 %23, label %28, label %24

24:                                               ; preds = %21
  %25 = load i32, ptr %5, align 4, !tbaa !97
  %26 = add i32 %25, -1
  store i32 %26, ptr %5, align 4, !tbaa !97
  %27 = icmp sgt i32 %25, 0
  br label %28

28:                                               ; preds = %24, %21
  %29 = phi i1 [ true, %21 ], [ %27, %24 ]
  br label %30

30:                                               ; preds = %28, %18
  %31 = phi i1 [ false, %18 ], [ %29, %28 ]
  br i1 %31, label %32, label %36

32:                                               ; preds = %30
  %33 = load ptr, ptr %6, align 8, !tbaa !287
  %34 = getelementptr inbounds nuw %struct._PyInterpreterFrame, ptr %33, i32 0, i32 1
  %35 = load ptr, ptr %34, align 8, !tbaa !288
  store ptr %35, ptr %6, align 8, !tbaa !287
  br label %18, !llvm.loop !300

36:                                               ; preds = %30
  %37 = load ptr, ptr %6, align 8, !tbaa !287
  %38 = icmp eq ptr %37, null
  br i1 %38, label %44, label %39

39:                                               ; preds = %36
  %40 = load ptr, ptr %6, align 8, !tbaa !287
  %41 = getelementptr inbounds nuw %struct._PyInterpreterFrame, ptr %40, i32 0, i32 2
  %42 = load i64, ptr %41, align 8, !tbaa !102
  %43 = icmp eq i64 %42, 0
  br i1 %43, label %44, label %45

44:                                               ; preds = %39, %36
  store ptr @_Py_NoneStruct, ptr %3, align 8
  store i32 1, ptr %7, align 4
  br label %58

45:                                               ; preds = %39
  call void @llvm.lifetime.start.p0(i64 8, ptr %8) #12
  %46 = load ptr, ptr %6, align 8, !tbaa !287
  %47 = getelementptr inbounds nuw %struct._PyInterpreterFrame, ptr %46, i32 0, i32 2
  %48 = load i64, ptr %47, align 8, !tbaa !102
  %49 = inttoptr i64 %48 to ptr
  store ptr %49, ptr %8, align 8, !tbaa !9
  call void @llvm.lifetime.start.p0(i64 8, ptr %9) #12
  %50 = load ptr, ptr %8, align 8, !tbaa !9
  %51 = call ptr @PyFunction_GetModule(ptr noundef %50)
  store ptr %51, ptr %9, align 8, !tbaa !9
  %52 = load ptr, ptr %9, align 8, !tbaa !9
  %53 = icmp ne ptr %52, null
  br i1 %53, label %55, label %54

54:                                               ; preds = %45
  call void @PyErr_Clear()
  store ptr @_Py_NoneStruct, ptr %9, align 8, !tbaa !9
  br label %55

55:                                               ; preds = %54, %45
  %56 = load ptr, ptr %9, align 8, !tbaa !9
  %57 = call ptr @_Py_NewRef(ptr noundef %56)
  store ptr %57, ptr %3, align 8
  store i32 1, ptr %7, align 4
  call void @llvm.lifetime.end.p0(i64 8, ptr %9) #12
  call void @llvm.lifetime.end.p0(i64 8, ptr %8) #12
  br label %58

58:                                               ; preds = %55, %44
  call void @llvm.lifetime.end.p0(i64 8, ptr %6) #12
  br label %59

59:                                               ; preds = %58, %13
  %60 = load ptr, ptr %3, align 8
  ret ptr %60
}

; Function Attrs: inlinehint nounwind uwtable
define internal i64 @PyTuple_GET_SIZE(ptr noundef %0) #3 {
  %2 = alloca ptr, align 8
  %3 = alloca ptr, align 8
  store ptr %0, ptr %2, align 8, !tbaa !9
  call void @llvm.lifetime.start.p0(i64 8, ptr %3) #12
  %4 = load ptr, ptr %2, align 8, !tbaa !9
  store ptr %4, ptr %3, align 8, !tbaa !212
  %5 = load ptr, ptr %3, align 8, !tbaa !212
  %6 = call i64 @Py_SIZE(ptr noundef %5)
  call void @llvm.lifetime.end.p0(i64 8, ptr %3) #12
  ret i64 %6
}

; Function Attrs: nounwind uwtable
define internal ptr @sys__getframemodulename(ptr noundef %0, ptr noundef %1, i64 noundef %2, ptr noundef %3) #0 {
  %5 = alloca ptr, align 8
  %6 = alloca ptr, align 8
  %7 = alloca i64, align 8
  %8 = alloca ptr, align 8
  %9 = alloca ptr, align 8
  %10 = alloca [1 x ptr], align 8
  %11 = alloca i64, align 8
  %12 = alloca i32, align 4
  store ptr %0, ptr %5, align 8, !tbaa !9
  store ptr %1, ptr %6, align 8, !tbaa !103
  store i64 %2, ptr %7, align 8, !tbaa !204
  store ptr %3, ptr %8, align 8, !tbaa !9
  call void @llvm.lifetime.start.p0(i64 8, ptr %9) #12
  store ptr null, ptr %9, align 8, !tbaa !9
  call void @llvm.lifetime.start.p0(i64 8, ptr %10) #12
  call void @llvm.lifetime.start.p0(i64 8, ptr %11) #12
  %13 = load i64, ptr %7, align 8, !tbaa !204
  %14 = load ptr, ptr %8, align 8, !tbaa !9
  %15 = icmp ne ptr %14, null
  br i1 %15, label %16, label %19

16:                                               ; preds = %4
  %17 = load ptr, ptr %8, align 8, !tbaa !9
  %18 = call i64 @PyTuple_GET_SIZE(ptr noundef %17)
  br label %20

19:                                               ; preds = %4
  br label %20

20:                                               ; preds = %19, %16
  %21 = phi i64 [ %18, %16 ], [ 0, %19 ]
  %22 = add i64 %13, %21
  %23 = sub i64 %22, 0
  store i64 %23, ptr %11, align 8, !tbaa !204
  call void @llvm.lifetime.start.p0(i64 4, ptr %12) #12
  store i32 0, ptr %12, align 4, !tbaa !97
  %24 = load ptr, ptr %8, align 8, !tbaa !9
  %25 = icmp eq ptr %24, null
  br i1 %25, label %26, label %37

26:                                               ; preds = %20
  %27 = load i64, ptr %7, align 8, !tbaa !204
  %28 = icmp sle i64 0, %27
  br i1 %28, label %29, label %37

29:                                               ; preds = %26
  %30 = load i64, ptr %7, align 8, !tbaa !204
  %31 = icmp sle i64 %30, 1
  br i1 %31, label %32, label %37

32:                                               ; preds = %29
  %33 = load ptr, ptr %6, align 8, !tbaa !103
  %34 = icmp ne ptr %33, null
  br i1 %34, label %35, label %37

35:                                               ; preds = %32
  %36 = load ptr, ptr %6, align 8, !tbaa !103
  br label %43

37:                                               ; preds = %32, %29, %26, %20
  %38 = load ptr, ptr %6, align 8, !tbaa !103
  %39 = load i64, ptr %7, align 8, !tbaa !204
  %40 = load ptr, ptr %8, align 8, !tbaa !9
  %41 = getelementptr inbounds [1 x ptr], ptr %10, i64 0, i64 0
  %42 = call ptr @_PyArg_UnpackKeywords(ptr noundef %38, i64 noundef %39, ptr noundef null, ptr noundef %40, ptr noundef @sys__getframemodulename._parser, i32 noundef 0, i32 noundef 1, i32 noundef 0, i32 noundef 0, ptr noundef %41)
  br label %43

43:                                               ; preds = %37, %35
  %44 = phi ptr [ %36, %35 ], [ %42, %37 ]
  store ptr %44, ptr %6, align 8, !tbaa !103
  %45 = load ptr, ptr %6, align 8, !tbaa !103
  %46 = icmp ne ptr %45, null
  br i1 %46, label %48, label %47

47:                                               ; preds = %43
  br label %68

48:                                               ; preds = %43
  %49 = load i64, ptr %11, align 8, !tbaa !204
  %50 = icmp ne i64 %49, 0
  br i1 %50, label %52, label %51

51:                                               ; preds = %48
  br label %64

52:                                               ; preds = %48
  %53 = load ptr, ptr %6, align 8, !tbaa !103
  %54 = getelementptr ptr, ptr %53, i64 0
  %55 = load ptr, ptr %54, align 8, !tbaa !9
  %56 = call i32 @PyLong_AsInt(ptr noundef %55)
  store i32 %56, ptr %12, align 4, !tbaa !97
  %57 = load i32, ptr %12, align 4, !tbaa !97
  %58 = icmp eq i32 %57, -1
  br i1 %58, label %59, label %63

59:                                               ; preds = %52
  %60 = call ptr @PyErr_Occurred()
  %61 = icmp ne ptr %60, null
  br i1 %61, label %62, label %63

62:                                               ; preds = %59
  br label %68

63:                                               ; preds = %59, %52
  br label %64

64:                                               ; preds = %63, %51
  %65 = load ptr, ptr %5, align 8, !tbaa !9
  %66 = load i32, ptr %12, align 4, !tbaa !97
  %67 = call ptr @sys__getframemodulename_impl(ptr noundef %65, i32 noundef %66)
  store ptr %67, ptr %9, align 8, !tbaa !9
  br label %68

68:                                               ; preds = %64, %62, %47
  %69 = load ptr, ptr %9, align 8, !tbaa !9
  call void @llvm.lifetime.end.p0(i64 4, ptr %12) #12
  call void @llvm.lifetime.end.p0(i64 8, ptr %11) #12
  call void @llvm.lifetime.end.p0(i64 8, ptr %10) #12
  call void @llvm.lifetime.end.p0(i64 8, ptr %9) #12
  ret ptr %69
}