; Function Attrs: nounwind uwtable
define internal noundef ptr @sys__getframemodulename(ptr readnone captures(none) %0, ptr noundef %1, i64 noundef %2, ptr noundef %3) #0 {
  %5 = alloca [1 x ptr], align 8
  call void @llvm.lifetime.start.p0(i64 8, ptr nonnull %5) #15
  %.not = icmp eq ptr %3, null
  br i1 %.not, label %7, label %.thread

.thread:                                          ; preds = %4
  %6 = getelementptr i8, ptr %3, i64 16
  %.val = load i64, ptr %6, align 8, !tbaa !217
  br label %10

7:                                                ; preds = %4
  %8 = icmp ult i64 %2, 2
  %9 = icmp ne ptr %1, null
  %or.cond5 = and i1 %9, %8
  br i1 %or.cond5, label %.thread32, label %10

10:                                               ; preds = %7, %.thread
  %11 = phi i64 [ %.val, %.thread ], [ 0, %7 ]
  %12 = call ptr @_PyArg_UnpackKeywords(ptr noundef %1, i64 noundef %2, ptr noundef null, ptr noundef %3, ptr noundef nonnull @sys__getframemodulename._parser, i32 noundef 0, i32 noundef 1, i32 noundef 0, i32 noundef 0, ptr noundef nonnull %5) #15
  %.not27 = icmp eq ptr %12, null
  br i1 %.not27, label %sys__getframemodulename_impl.exit, label %.thread32

.thread32:                                        ; preds = %7, %10
  %13 = phi ptr [ %12, %10 ], [ %1, %7 ]
  %14 = phi i64 [ %11, %10 ], [ 0, %7 ]
  %15 = sub i64 0, %14
  %.not28 = icmp eq i64 %2, %15
  br i1 %.not28, label %22, label %16

16:                                               ; preds = %.thread32
  %17 = load ptr, ptr %13, align 8, !tbaa !93
  %18 = call i32 @PyLong_AsInt(ptr noundef %17) #15
  %19 = icmp eq i32 %18, -1
  br i1 %19, label %20, label %22

20:                                               ; preds = %16
  %21 = call ptr @PyErr_Occurred() #15
  %.not29 = icmp eq ptr %21, null
  br i1 %.not29, label %22, label %sys__getframemodulename_impl.exit

22:                                               ; preds = %16, %20, %.thread32
  %.0 = phi i32 [ -1, %20 ], [ %18, %16 ], [ 0, %.thread32 ]
  %23 = call i32 (ptr, ptr, ...) @PySys_Audit(ptr noundef nonnull @.str.122, ptr noundef nonnull @.str.123, i32 noundef %.0)
  %24 = icmp slt i32 %23, 0
  br i1 %24, label %sys__getframemodulename_impl.exit, label %25

25:                                               ; preds = %22
  %26 = call align 8 ptr @llvm.threadlocal.address.p0(ptr align 8 @_Py_tss_tstate)
  %27 = load ptr, ptr %26, align 8, !tbaa !92
  %28 = getelementptr inbounds nuw i8, ptr %27, i64 72
  %.0145.i = load ptr, ptr %28, align 8, !tbaa !282
  %cond6.i = icmp eq ptr %.0145.i, null
  br i1 %cond6.i, label %sys__getframemodulename_impl.exit, label %.lr.ph.i

.lr.ph.i:                                         ; preds = %25, %.critedge2.i
  %.0148.i = phi ptr [ %.014.i, %.critedge2.i ], [ %.0145.i, %25 ]
  %.0157.i = phi i32 [ %.116.i, %.critedge2.i ], [ %.0, %25 ]
  %29 = getelementptr inbounds nuw i8, ptr %.0148.i, i64 74
  %30 = load i8, ptr %29, align 2, !tbaa !276
  %31 = icmp sgt i8 %30, 2
  br i1 %31, label %.critedge2.i, label %32

32:                                               ; preds = %.lr.ph.i
  %.not.i.i = icmp eq i8 %30, 1
  br i1 %.not.i.i, label %_PyFrame_IsIncomplete.exit.thread2.i, label %_PyFrame_IsIncomplete.exit.i

_PyFrame_IsIncomplete.exit.i:                     ; preds = %32
  %33 = getelementptr inbounds nuw i8, ptr %.0148.i, i64 56
  %34 = load ptr, ptr %33, align 8, !tbaa !277
  %.val7.i.i = load i64, ptr %.0148.i, align 8, !tbaa !94
  %35 = inttoptr i64 %.val7.i.i to ptr
  %36 = getelementptr inbounds nuw i8, ptr %35, i64 208
  %37 = getelementptr inbounds nuw i8, ptr %35, i64 192
  %38 = load i32, ptr %37, align 8, !tbaa !278
  %39 = sext i32 %38 to i64
  %40 = getelementptr %union._Py_CODEUNIT, ptr %36, i64 %39
  %41 = icmp ult ptr %34, %40
  br i1 %41, label %.critedge2.i, label %_PyFrame_IsIncomplete.exit.thread2.i

_PyFrame_IsIncomplete.exit.thread2.i:             ; preds = %_PyFrame_IsIncomplete.exit.i, %32
  %42 = add nsw i32 %.0157.i, -1
  %43 = icmp sgt i32 %.0157.i, 0
  br i1 %43, label %.critedge2.i, label %.critedge.i

.critedge2.i:                                     ; preds = %_PyFrame_IsIncomplete.exit.thread2.i, %_PyFrame_IsIncomplete.exit.i, %.lr.ph.i
  %.116.i = phi i32 [ %.0157.i, %_PyFrame_IsIncomplete.exit.i ], [ %42, %_PyFrame_IsIncomplete.exit.thread2.i ], [ %.0157.i, %.lr.ph.i ]
  %44 = getelementptr inbounds nuw i8, ptr %.0148.i, i64 8
  %.014.i = load ptr, ptr %44, align 8, !tbaa !282
  %cond.i = icmp eq ptr %.014.i, null
  br i1 %cond.i, label %sys__getframemodulename_impl.exit, label %.lr.ph.i, !llvm.loop !283

.critedge.i:                                      ; preds = %_PyFrame_IsIncomplete.exit.thread2.i
  %45 = getelementptr inbounds nuw i8, ptr %.0148.i, i64 16
  %46 = load i64, ptr %45, align 8, !tbaa !94
  %47 = icmp eq i64 %46, 0
  br i1 %47, label %sys__getframemodulename_impl.exit, label %48

48:                                               ; preds = %.critedge.i
  %49 = inttoptr i64 %46 to ptr
  %50 = call ptr @PyFunction_GetModule(ptr noundef nonnull %49) #15
  %.not19.i = icmp eq ptr %50, null
  br i1 %.not19.i, label %51, label %52

51:                                               ; preds = %48
  call void @PyErr_Clear() #15
  br label %52

52:                                               ; preds = %51, %48
  %.0.i = phi ptr [ %50, %48 ], [ @_Py_NoneStruct, %51 ]
  %53 = load i32, ptr %.0.i, align 8, !tbaa !94
  %54 = icmp slt i32 %53, 0
  br i1 %54, label %sys__getframemodulename_impl.exit, label %55

55:                                               ; preds = %52
  %56 = add nuw i32 %53, 1
  store i32 %56, ptr %.0.i, align 8, !tbaa !94
  br label %sys__getframemodulename_impl.exit

sys__getframemodulename_impl.exit:                ; preds = %.critedge2.i, %55, %52, %.critedge.i, %25, %22, %20, %10
  %.022 = phi ptr [ null, %20 ], [ null, %10 ], [ null, %22 ], [ @_Py_NoneStruct, %.critedge.i ], [ %.0.i, %52 ], [ %.0.i, %55 ], [ @_Py_NoneStruct, %25 ], [ @_Py_NoneStruct, %.critedge2.i ]
  call void @llvm.lifetime.end.p0(i64 8, ptr nonnull %5) #15
  ret ptr %.022
}